target datalayout = "e-m:e-p270:32:32-p271:32:32-p272:64:64-i64:64-i128:128-f80:128-n8:16:32:64-S128"
target triple = "x86_64-pc-linux-gnu"

%"class.std::ios_base::Init" = type { i8 }
%"class.std::__cxx11::basic_string" = type { %"struct.std::__cxx11::basic_string<char>::_Alloc_hider", i64, %union.anon }
%"struct.std::__cxx11::basic_string<char>::_Alloc_hider" = type { ptr }
%union.anon = type { i64, [8 x i8] }
%struct.__va_list_tag = type { i32, i32, ptr, ptr }

@_ZStL8__ioinit = internal global %"class.std::ios_base::Init" zeroinitializer, align 1
@__dso_handle = external hidden global i8
@.str = private unnamed_addr constant [4 x i8] c"   \00", align 1
@.str.1 = private unnamed_addr constant [58 x i8] c"[ArchSnprintf(str, strlen(str), \22   \22) == 3] axiom failed\00", align 1
@__func__.main = private unnamed_addr constant [5 x i8] c"main\00", align 1
@.str.2 = private unnamed_addr constant [133 x i8] c"generated/home/dtcxzyw/WorkSpace/Projects/compilers/llvm-opt-benchmark/bench/openusd/OpenUSD/pxr/base/arch/testenv/testVsnprintf.cpp\00", align 1
@.str.3 = private unnamed_addr constant [3 x i8] c"%s\00", align 1
@.str.4 = private unnamed_addr constant [63 x i8] c"[ArchStringPrintf(\22%s\22, long_fmt).size() == 8191] axiom failed\00", align 1
@llvm.global_ctors = appending global [1 x { i32, ptr, ptr }] [{ i32, ptr, ptr } { i32 65535, ptr @_GLOBAL__sub_I_testVsnprintf.cpp, ptr null }]

; Function Attrs: uwtable
define internal void @__cxx_global_var_init() #0 section ".text.startup" {
  call void @_ZNSt8ios_base4InitC1Ev(ptr noundef nonnull align 1 dereferenceable(1) @_ZStL8__ioinit)
  %1 = call i32 @__cxa_atexit(ptr @_ZNSt8ios_base4InitD1Ev, ptr @_ZStL8__ioinit, ptr @__dso_handle) #3
  ret void
}

declare void @_ZNSt8ios_base4InitC1Ev(ptr noundef nonnull align 1 dereferenceable(1)) unnamed_addr #1

; Function Attrs: nounwind
declare void @_ZNSt8ios_base4InitD1Ev(ptr noundef nonnull align 1 dereferenceable(1)) unnamed_addr #2

; Function Attrs: nounwind
declare i32 @__cxa_atexit(ptr, ptr, ptr) #3

; Function Attrs: mustprogress norecurse uwtable
define dso_local noundef i32 @main() #4 {
  %1 = alloca i32, align 4
  %2 = alloca [1 x i8], align 1
  %3 = alloca [8192 x i8], align 16
  %4 = alloca i32, align 4
  %5 = alloca %"class.std::__cxx11::basic_string", align 8
  store i32 0, ptr %1, align 4
  call void @llvm.memset.p0.i64(ptr align 1 %2, i8 0, i64 1, i1 false)
  %6 = getelementptr inbounds [1 x i8], ptr %2, i64 0, i64 0
  %7 = getelementptr inbounds [1 x i8], ptr %2, i64 0, i64 0
  %8 = call i64 @strlen(ptr noundef %7) #10
  %9 = call noundef i32 (ptr, i64, ptr, ...) @_ZL12ArchSnprintfPcmPKcz(ptr noundef %6, i64 noundef %8, ptr noundef @.str)
  %10 = icmp eq i32 %9, 3
  br i1 %10, label %12, label %11

11:                                               ; preds = %0
  call void @_ZN32pxrInternal_v0_24__pxrReserved__10Arch_ErrorEPKcS1_mS1_(ptr noundef @.str.1, ptr noundef @__func__.main, i64 noundef 36, ptr noundef @.str.2) #11
  unreachable

12:                                               ; preds = %0
  store i32 0, ptr %4, align 4
  br label %13

13:                                               ; preds = %20, %12
  %14 = load i32, ptr %4, align 4
  %15 = icmp slt i32 %14, 8191
  br i1 %15, label %16, label %23

16:                                               ; preds = %13
  %17 = load i32, ptr %4, align 4
  %18 = sext i32 %17 to i64
  %19 = getelementptr inbounds [8192 x i8], ptr %3, i64 0, i64 %18
  store i8 32, ptr %19, align 1
  br label %20

20:                                               ; preds = %16
  %21 = load i32, ptr %4, align 4
  %22 = add nsw i32 %21, 1
  store i32 %22, ptr %4, align 4
  br label %13, !llvm.loop !5

23:                                               ; preds = %13
  %24 = getelementptr inbounds [8192 x i8], ptr %3, i64 0, i64 8191
  store i8 0, ptr %24, align 1
  %25 = getelementptr inbounds [8192 x i8], ptr %3, i64 0, i64 0
  call void (ptr, ptr, ...) @_ZN32pxrInternal_v0_24__pxrReserved__16ArchStringPrintfB5cxx11EPKcz(ptr dead_on_unwind writable sret(%"class.std::__cxx11::basic_string") align 8 %5, ptr noundef @.str.3, ptr noundef %25)
  %26 = call noundef i64 @_ZNKSt7__cxx1112basic_stringIcSt11char_traitsIcESaIcEE4sizeEv(ptr noundef nonnull align 8 dereferenceable(32) %5) #3
  %27 = icmp eq i64 %26, 8191
  %28 = xor i1 %27, true
  call void @_ZNSt7__cxx1112basic_stringIcSt11char_traitsIcESaIcEED1Ev(ptr noundef nonnull align 8 dereferenceable(32) %5) #3
  br i1 %28, label %29, label %30

29:                                               ; preds = %23
  call void @_ZN32pxrInternal_v0_24__pxrReserved__10Arch_ErrorEPKcS1_mS1_(ptr noundef @.str.4, ptr noundef @__func__.main, i64 noundef 46, ptr noundef @.str.2) #11
  unreachable

30:                                               ; preds = %23
  ret i32 0
}

; Function Attrs: nocallback nofree nounwind willreturn memory(argmem: write)
declare void @llvm.memset.p0.i64(ptr nocapture writeonly, i8, i64, i1 immarg) #5

; Function Attrs: mustprogress uwtable
define internal noundef i32 @_ZL12ArchSnprintfPcmPKcz(ptr noundef %0, i64 noundef %1, ptr noundef %2, ...) #6 {
  %4 = alloca ptr, align 8
  %5 = alloca i64, align 8
  %6 = alloca ptr, align 8
  %7 = alloca i32, align 4
  %8 = alloca [1 x %struct.__va_list_tag], align 16
  store ptr %0, ptr %4, align 8
  store i64 %1, ptr %5, align 8
  store ptr %2, ptr %6, align 8
  %9 = getelementptr inbounds [1 x %struct.__va_list_tag], ptr %8, i64 0, i64 0
  call void @llvm.va_start.p0(ptr %9)
  %10 = load ptr, ptr %4, align 8
  %11 = load i64, ptr %5, align 8
  %12 = load ptr, ptr %6, align 8
  %13 = getelementptr inbounds [1 x %struct.__va_list_tag], ptr %8, i64 0, i64 0
  %14 = call noundef i32 @_ZN32pxrInternal_v0_24__pxrReserved__13ArchVsnprintfEPcmPKcP13__va_list_tag(ptr noundef %10, i64 noundef %11, ptr noundef %12, ptr noundef %13)
  store i32 %14, ptr %7, align 4
  %15 = getelementptr inbounds [1 x %struct.__va_list_tag], ptr %8, i64 0, i64 0
  call void @llvm.va_end.p0(ptr %15)
  %16 = load i32, ptr %7, align 4
  ret i32 %16
}

; Function Attrs: nounwind willreturn memory(read)
declare i64 @strlen(ptr noundef) #7

; Function Attrs: noreturn
declare void @_ZN32pxrInternal_v0_24__pxrReserved__10Arch_ErrorEPKcS1_mS1_(ptr noundef, ptr noundef, i64 noundef, ptr noundef) #8

declare void @_ZN32pxrInternal_v0_24__pxrReserved__16ArchStringPrintfB5cxx11EPKcz(ptr dead_on_unwind writable sret(%"class.std::__cxx11::basic_string") align 8, ptr noundef, ...) #1

; Function Attrs: nounwind
declare noundef i64 @_ZNKSt7__cxx1112basic_stringIcSt11char_traitsIcESaIcEE4sizeEv(ptr noundef nonnull align 8 dereferenceable(32)) #2

; Function Attrs: nounwind
declare void @_ZNSt7__cxx1112basic_stringIcSt11char_traitsIcESaIcEED1Ev(ptr noundef nonnull align 8 dereferenceable(32)) unnamed_addr #2

; Function Attrs: nocallback nofree nosync nounwind willreturn
declare void @llvm.va_start.p0(ptr) #9

declare noundef i32 @_ZN32pxrInternal_v0_24__pxrReserved__13ArchVsnprintfEPcmPKcP13__va_list_tag(ptr noundef, i64 noundef, ptr noundef, ptr noundef) #1

; Function Attrs: nocallback nofree nosync nounwind willreturn
declare void @llvm.va_end.p0(ptr) #9

; Function Attrs: uwtable
define internal void @_GLOBAL__sub_I_testVsnprintf.cpp() #0 section ".text.startup" {
  call void @__cxx_global_var_init()
  ret void
}


!llvm.module.flags = !{!0, !1, !2, !3, !4}

!0 = !{i32 1, !"wchar_size", i32 4}
!1 = !{i32 8, !"PIC Level", i32 2}
!2 = !{i32 7, !"PIE Level", i32 2}
!3 = !{i32 7, !"uwtable", i32 2}
!4 = !{i32 7, !"frame-pointer", i32 2}
!5 = distinct !{!5, !6}
!6 = !{!"llvm.loop.mustprogress"}
