; ModuleID = 'bench/openusd/original/testVsnprintf.cpp.ll'
source_filename = "bench/openusd/original/testVsnprintf.cpp.ll"
target datalayout = "e-m:e-p270:32:32-p271:32:32-p272:64:64-i64:64-i128:128-f80:128-n8:16:32:64-S128"
target triple = "x86_64-pc-linux-gnu"

%"class.std::ios_base::Init" = type { i8 }
%"class.std::__cxx11::basic_string" = type { %"struct.std::__cxx11::basic_string<char>::_Alloc_hider", i64, %union.anon }
%"struct.std::__cxx11::basic_string<char>::_Alloc_hider" = type { ptr }
%union.anon = type { i64, [8 x i8] }
%struct.__va_list_tag = type { i32, i32, ptr, ptr }

@_ZStL8__ioinit = internal global %"class.std::ios_base::Init" zeroinitializer, align 1
@__dso_handle = external hidden global i8
@.str = private unnamed_addr constant [4 x i8] c"   \00", align 1
@.str.1 = private unnamed_addr constant [58 x i8] c"[ArchSnprintf(str, strlen(str), \22   \22) == 3] axiom failed\00", align 1
@__func__.main = private unnamed_addr constant [5 x i8] c"main\00", align 1
@.str.2 = private unnamed_addr constant [133 x i8] c"generated/home/dtcxzyw/WorkSpace/Projects/compilers/llvm-opt-benchmark/bench/openusd/OpenUSD/pxr/base/arch/testenv/testVsnprintf.cpp\00", align 1
@.str.3 = private unnamed_addr constant [3 x i8] c"%s\00", align 1
@.str.4 = private unnamed_addr constant [63 x i8] c"[ArchStringPrintf(\22%s\22, long_fmt).size() == 8191] axiom failed\00", align 1
@llvm.global_ctors = appending global [1 x { i32, ptr, ptr }] [{ i32, ptr, ptr } { i32 65535, ptr @_GLOBAL__sub_I_testVsnprintf.cpp, ptr null }]

declare void @_ZNSt8ios_base4InitC1Ev(ptr noundef nonnull align 1 dereferenceable(1)) unnamed_addr #0

; Function Attrs: nounwind
declare void @_ZNSt8ios_base4InitD1Ev(ptr noundef nonnull align 1 dereferenceable(1)) unnamed_addr #1

; Function Attrs: nofree nounwind
declare i32 @__cxa_atexit(ptr, ptr, ptr) local_unnamed_addr #2

; Function Attrs: mustprogress norecurse uwtable
define dso_local noundef i32 @main() local_unnamed_addr #3 {
  %1 = alloca [1 x i8], align 1
  %2 = alloca [8192 x i8], align 16
  %3 = alloca %"class.std::__cxx11::basic_string", align 8
  store i8 0, ptr %1, align 1
  %4 = call i64 @strlen(ptr noundef nonnull dereferenceable(1) %1) #9
  %5 = call noundef i32 (ptr, i64, ptr, ...) @_ZL12ArchSnprintfPcmPKcz(ptr noundef nonnull %1, i64 noundef %4, ptr nonnull poison)
  %6 = icmp eq i32 %5, 3
  br i1 %6, label %.preheader.preheader, label %9

.preheader.preheader:                             ; preds = %0
  call void @llvm.memset.p0.i64(ptr noundef nonnull align 16 dereferenceable(8191) %2, i8 32, i64 8191, i1 false)
  %7 = getelementptr inbounds i8, ptr %2, i64 8191
  store i8 0, ptr %7, align 1
  call void (ptr, ptr, ...) @_ZN32pxrInternal_v0_24__pxrReserved__16ArchStringPrintfB5cxx11EPKcz(ptr dead_on_unwind nonnull writable sret(%"class.std::__cxx11::basic_string") align 8 %3, ptr noundef nonnull @.str.3, ptr noundef nonnull %2)
  %8 = call noundef i64 @_ZNKSt7__cxx1112basic_stringIcSt11char_traitsIcESaIcEE4sizeEv(ptr noundef nonnull align 8 dereferenceable(32) %3) #10
  %.not = icmp eq i64 %8, 8191
  call void @_ZNSt7__cxx1112basic_stringIcSt11char_traitsIcESaIcEED1Ev(ptr noundef nonnull align 8 dereferenceable(32) %3) #10
  br i1 %.not, label %11, label %10

9:                                                ; preds = %0
  call void @_ZN32pxrInternal_v0_24__pxrReserved__10Arch_ErrorEPKcS1_mS1_(ptr noundef nonnull @.str.1, ptr noundef nonnull @__func__.main, i64 noundef 36, ptr noundef nonnull @.str.2) #11
  unreachable

10:                                               ; preds = %.preheader.preheader
  call void @_ZN32pxrInternal_v0_24__pxrReserved__10Arch_ErrorEPKcS1_mS1_(ptr noundef nonnull @.str.4, ptr noundef nonnull @__func__.main, i64 noundef 46, ptr noundef nonnull @.str.2) #11
  unreachable

11:                                               ; preds = %.preheader.preheader
  ret i32 0
}

; Function Attrs: mustprogress nocallback nofree nounwind willreturn memory(argmem: write)
declare void @llvm.memset.p0.i64(ptr nocapture writeonly, i8, i64, i1 immarg) #4

; Function Attrs: mustprogress norecurse uwtable
define internal noundef i32 @_ZL12ArchSnprintfPcmPKcz(ptr noundef %0, i64 noundef %1, ptr nocapture readnone %2, ...) unnamed_addr #3 {
  %4 = alloca [1 x %struct.__va_list_tag], align 16
  call void @llvm.va_start.p0(ptr nonnull %4)
  %5 = call noundef i32 @_ZN32pxrInternal_v0_24__pxrReserved__13ArchVsnprintfEPcmPKcP13__va_list_tag(ptr noundef %0, i64 noundef %1, ptr noundef nonnull @.str, ptr noundef nonnull %4)
  call void @llvm.va_end.p0(ptr nonnull %4)
  ret i32 %5
}

; Function Attrs: mustprogress nofree nounwind willreturn memory(argmem: read)
declare i64 @strlen(ptr nocapture noundef) local_unnamed_addr #5

; Function Attrs: noreturn
declare void @_ZN32pxrInternal_v0_24__pxrReserved__10Arch_ErrorEPKcS1_mS1_(ptr noundef, ptr noundef, i64 noundef, ptr noundef) local_unnamed_addr #6

declare void @_ZN32pxrInternal_v0_24__pxrReserved__16ArchStringPrintfB5cxx11EPKcz(ptr dead_on_unwind writable sret(%"class.std::__cxx11::basic_string") align 8, ptr noundef, ...) local_unnamed_addr #0

; Function Attrs: nounwind
declare noundef i64 @_ZNKSt7__cxx1112basic_stringIcSt11char_traitsIcESaIcEE4sizeEv(ptr noundef nonnull align 8 dereferenceable(32)) local_unnamed_addr #1

; Function Attrs: nounwind
declare void @_ZNSt7__cxx1112basic_stringIcSt11char_traitsIcESaIcEED1Ev(ptr noundef nonnull align 8 dereferenceable(32)) unnamed_addr #1

; Function Attrs: mustprogress nocallback nofree nosync nounwind willreturn
declare void @llvm.va_start.p0(ptr) #7

declare noundef i32 @_ZN32pxrInternal_v0_24__pxrReserved__13ArchVsnprintfEPcmPKcP13__va_list_tag(ptr noundef, i64 noundef, ptr noundef, ptr noundef) local_unnamed_addr #0

; Function Attrs: mustprogress nocallback nofree nosync nounwind willreturn
declare void @llvm.va_end.p0(ptr) #7

; Function Attrs: uwtable
define internal void @_GLOBAL__sub_I_testVsnprintf.cpp() #8 section ".text.startup" {
  tail call void @_ZNSt8ios_base4InitC1Ev(ptr noundef nonnull align 1 dereferenceable(1) @_ZStL8__ioinit)
  %1 = tail call i32 @__cxa_atexit(ptr nonnull @_ZNSt8ios_base4InitD1Ev, ptr nonnull @_ZStL8__ioinit, ptr nonnull @__dso_handle) #10
  ret void
}


!llvm.module.flags = !{!0, !1, !2, !3, !4}

!0 = !{i32 1, !"wchar_size", i32 4}
!1 = !{i32 8, !"PIC Level", i32 2}
!2 = !{i32 7, !"PIE Level", i32 2}
!3 = !{i32 7, !"uwtable", i32 2}
!4 = !{i32 7, !"frame-pointer", i32 2}
